; Function Attrs: nounwind uwtable
define internal fastcc void @mpegts_open_section_filter(ptr noundef captures(none) %0, i32 noundef %1, ptr noundef %2, ptr noundef %3) unnamed_addr #0 {
  %5 = tail call noalias ptr @av_mallocz(i64 noundef 4096) #12
  %.not = icmp eq ptr %5, null
  br i1 %.not, label %30, label %6

6:                                                ; preds = %4
  %7 = getelementptr inbounds nuw i8, ptr %0, i64 8
  %8 = load ptr, ptr %7, align 8, !tbaa !57
  tail call void (ptr, i32, ptr, ...) @av_log(ptr noundef %8, i32 noundef 56, ptr noundef nonnull @.str.14, i32 noundef %1, i32 noundef 1) #12
  %9 = icmp ugt i32 %1, 8191
  br i1 %9, label %17, label %10

10:                                               ; preds = %6
  %11 = getelementptr inbounds nuw i8, ptr %0, i64 8328
  %12 = zext nneg i32 %1 to i64
  %13 = getelementptr inbounds nuw [8192 x ptr], ptr %11, i64 0, i64 %12
  %14 = load ptr, ptr %13, align 8, !tbaa !46
  %.not.i = icmp eq ptr %14, null
  br i1 %.not.i, label %15, label %17

15:                                               ; preds = %10
  %16 = tail call noalias ptr @av_mallocz(i64 noundef 88) #12
  %.not20.i = icmp eq ptr %16, null
  br i1 %.not20.i, label %17, label %18

17:                                               ; preds = %10, %6, %15
  tail call void @av_free(ptr noundef nonnull %5) #12
  br label %30

18:                                               ; preds = %15
  store ptr %16, ptr %13, align 8, !tbaa !46
  %19 = getelementptr inbounds nuw i8, ptr %16, i64 28
  store i32 1, ptr %19, align 4, !tbaa !62
  store i32 %1, ptr %16, align 8, !tbaa !63
  %20 = getelementptr inbounds nuw i8, ptr %16, i64 4
  store i32 -1, ptr %20, align 4, !tbaa !48
  %21 = getelementptr inbounds nuw i8, ptr %16, i64 8
  store i32 -1, ptr %21, align 8, !tbaa !64
  %22 = getelementptr inbounds nuw i8, ptr %16, i64 16
  store i64 -1, ptr %22, align 8, !tbaa !65
  %23 = getelementptr inbounds nuw i8, ptr %16, i64 72
  store ptr %2, ptr %23, align 8, !tbaa !66
  %24 = getelementptr inbounds nuw i8, ptr %16, i64 80
  store ptr %3, ptr %24, align 8, !tbaa !68
  %25 = getelementptr inbounds nuw i8, ptr %16, i64 56
  store ptr %5, ptr %25, align 8, !tbaa !69
  %26 = getelementptr inbounds nuw i8, ptr %16, i64 64
  %27 = load i8, ptr %26, align 8
  %28 = or i8 %27, 1
  store i8 %28, ptr %26, align 8
  %29 = getelementptr inbounds nuw i8, ptr %16, i64 40
  store i32 -1, ptr %29, align 8, !tbaa !70
  br label %30

30:                                               ; preds = %4, %18, %17
  ret void
}